
vuln(4):     file format elf32-i386


Disassembly of section .init:

08048394 <_init>:
 8048394:	53                   	push   %ebx
 8048395:	83 ec 08             	sub    $0x8,%esp
 8048398:	e8 13 01 00 00       	call   80484b0 <__x86.get_pc_thunk.bx>
 804839d:	81 c3 63 1c 00 00    	add    $0x1c63,%ebx
 80483a3:	8b 83 f8 ff ff ff    	mov    -0x8(%ebx),%eax
 80483a9:	85 c0                	test   %eax,%eax
 80483ab:	74 05                	je     80483b2 <_init+0x1e>
 80483ad:	e8 9e 00 00 00       	call   8048450 <.plt.got>
 80483b2:	83 c4 08             	add    $0x8,%esp
 80483b5:	5b                   	pop    %ebx
 80483b6:	c3                   	ret    

Disassembly of section .plt:

080483c0 <.plt>:
 80483c0:	ff 35 04 a0 04 08    	pushl  0x804a004
 80483c6:	ff 25 08 a0 04 08    	jmp    *0x804a008
 80483cc:	00 00                	add    %al,(%eax)
	...

080483d0 <printf@plt>:
 80483d0:	ff 25 0c a0 04 08    	jmp    *0x804a00c
 80483d6:	68 00 00 00 00       	push   $0x0
 80483db:	e9 e0 ff ff ff       	jmp    80483c0 <.plt>

080483e0 <fflush@plt>:
 80483e0:	ff 25 10 a0 04 08    	jmp    *0x804a010
 80483e6:	68 08 00 00 00       	push   $0x8
 80483eb:	e9 d0 ff ff ff       	jmp    80483c0 <.plt>

080483f0 <gets@plt>:
 80483f0:	ff 25 14 a0 04 08    	jmp    *0x804a014
 80483f6:	68 10 00 00 00       	push   $0x10
 80483fb:	e9 c0 ff ff ff       	jmp    80483c0 <.plt>

08048400 <getegid@plt>:
 8048400:	ff 25 18 a0 04 08    	jmp    *0x804a018
 8048406:	68 18 00 00 00       	push   $0x18
 804840b:	e9 b0 ff ff ff       	jmp    80483c0 <.plt>

08048410 <puts@plt>:
 8048410:	ff 25 1c a0 04 08    	jmp    *0x804a01c
 8048416:	68 20 00 00 00       	push   $0x20
 804841b:	e9 a0 ff ff ff       	jmp    80483c0 <.plt>

08048420 <system@plt>:
 8048420:	ff 25 20 a0 04 08    	jmp    *0x804a020
 8048426:	68 28 00 00 00       	push   $0x28
 804842b:	e9 90 ff ff ff       	jmp    80483c0 <.plt>

08048430 <__libc_start_main@plt>:
 8048430:	ff 25 24 a0 04 08    	jmp    *0x804a024
 8048436:	68 30 00 00 00       	push   $0x30
 804843b:	e9 80 ff ff ff       	jmp    80483c0 <.plt>

08048440 <setresgid@plt>:
 8048440:	ff 25 28 a0 04 08    	jmp    *0x804a028
 8048446:	68 38 00 00 00       	push   $0x38
 804844b:	e9 70 ff ff ff       	jmp    80483c0 <.plt>

Disassembly of section .plt.got:

08048450 <.plt.got>:
 8048450:	ff 25 f8 9f 04 08    	jmp    *0x8049ff8
 8048456:	66 90                	xchg   %ax,%ax

Disassembly of section .text:

08048460 <_start>:
 8048460:	31 ed                	xor    %ebp,%ebp
 8048462:	5e                   	pop    %esi
 8048463:	89 e1                	mov    %esp,%ecx
 8048465:	83 e4 f0             	and    $0xfffffff0,%esp
 8048468:	50                   	push   %eax
 8048469:	54                   	push   %esp
 804846a:	52                   	push   %edx
 804846b:	e8 23 00 00 00       	call   8048493 <_start+0x33>
 8048470:	81 c3 90 1b 00 00    	add    $0x1b90,%ebx
 8048476:	8d 83 b0 e6 ff ff    	lea    -0x1950(%ebx),%eax
 804847c:	50                   	push   %eax
 804847d:	8d 83 50 e6 ff ff    	lea    -0x19b0(%ebx),%eax
 8048483:	50                   	push   %eax
 8048484:	51                   	push   %ecx
 8048485:	56                   	push   %esi
 8048486:	c7 c0 ef 85 04 08    	mov    $0x80485ef,%eax
 804848c:	50                   	push   %eax
 804848d:	e8 9e ff ff ff       	call   8048430 <__libc_start_main@plt>
 8048492:	f4                   	hlt    
 8048493:	8b 1c 24             	mov    (%esp),%ebx
 8048496:	c3                   	ret    
 8048497:	66 90                	xchg   %ax,%ax
 8048499:	66 90                	xchg   %ax,%ax
 804849b:	66 90                	xchg   %ax,%ax
 804849d:	66 90                	xchg   %ax,%ax
 804849f:	90                   	nop

080484a0 <_dl_relocate_static_pie>:
 80484a0:	f3 c3                	repz ret 
 80484a2:	66 90                	xchg   %ax,%ax
 80484a4:	66 90                	xchg   %ax,%ax
 80484a6:	66 90                	xchg   %ax,%ax
 80484a8:	66 90                	xchg   %ax,%ax
 80484aa:	66 90                	xchg   %ax,%ax
 80484ac:	66 90                	xchg   %ax,%ax
 80484ae:	66 90                	xchg   %ax,%ax

080484b0 <__x86.get_pc_thunk.bx>:
 80484b0:	8b 1c 24             	mov    (%esp),%ebx
 80484b3:	c3                   	ret    
 80484b4:	66 90                	xchg   %ax,%ax
 80484b6:	66 90                	xchg   %ax,%ax
 80484b8:	66 90                	xchg   %ax,%ax
 80484ba:	66 90                	xchg   %ax,%ax
 80484bc:	66 90                	xchg   %ax,%ax
 80484be:	66 90                	xchg   %ax,%ax

080484c0 <deregister_tm_clones>:
 80484c0:	b8 34 a0 04 08       	mov    $0x804a034,%eax
 80484c5:	3d 34 a0 04 08       	cmp    $0x804a034,%eax
 80484ca:	74 24                	je     80484f0 <deregister_tm_clones+0x30>
 80484cc:	b8 00 00 00 00       	mov    $0x0,%eax
 80484d1:	85 c0                	test   %eax,%eax
 80484d3:	74 1b                	je     80484f0 <deregister_tm_clones+0x30>
 80484d5:	55                   	push   %ebp
 80484d6:	89 e5                	mov    %esp,%ebp
 80484d8:	83 ec 14             	sub    $0x14,%esp
 80484db:	68 34 a0 04 08       	push   $0x804a034
 80484e0:	ff d0                	call   *%eax
 80484e2:	83 c4 10             	add    $0x10,%esp
 80484e5:	c9                   	leave  
 80484e6:	c3                   	ret    
 80484e7:	89 f6                	mov    %esi,%esi
 80484e9:	8d bc 27 00 00 00 00 	lea    0x0(%edi,%eiz,1),%edi
 80484f0:	f3 c3                	repz ret 
 80484f2:	8d b4 26 00 00 00 00 	lea    0x0(%esi,%eiz,1),%esi
 80484f9:	8d bc 27 00 00 00 00 	lea    0x0(%edi,%eiz,1),%edi

08048500 <register_tm_clones>:
 8048500:	b8 34 a0 04 08       	mov    $0x804a034,%eax
 8048505:	2d 34 a0 04 08       	sub    $0x804a034,%eax
 804850a:	c1 f8 02             	sar    $0x2,%eax
 804850d:	89 c2                	mov    %eax,%edx
 804850f:	c1 ea 1f             	shr    $0x1f,%edx
 8048512:	01 d0                	add    %edx,%eax
 8048514:	d1 f8                	sar    %eax
 8048516:	74 20                	je     8048538 <register_tm_clones+0x38>
 8048518:	ba 00 00 00 00       	mov    $0x0,%edx
 804851d:	85 d2                	test   %edx,%edx
 804851f:	74 17                	je     8048538 <register_tm_clones+0x38>
 8048521:	55                   	push   %ebp
 8048522:	89 e5                	mov    %esp,%ebp
 8048524:	83 ec 10             	sub    $0x10,%esp
 8048527:	50                   	push   %eax
 8048528:	68 34 a0 04 08       	push   $0x804a034
 804852d:	ff d2                	call   *%edx
 804852f:	83 c4 10             	add    $0x10,%esp
 8048532:	c9                   	leave  
 8048533:	c3                   	ret    
 8048534:	8d 74 26 00          	lea    0x0(%esi,%eiz,1),%esi
 8048538:	f3 c3                	repz ret 
 804853a:	8d b6 00 00 00 00    	lea    0x0(%esi),%esi

08048540 <__do_global_dtors_aux>:
 8048540:	80 3d 34 a0 04 08 00 	cmpb   $0x0,0x804a034
 8048547:	75 17                	jne    8048560 <__do_global_dtors_aux+0x20>
 8048549:	55                   	push   %ebp
 804854a:	89 e5                	mov    %esp,%ebp
 804854c:	83 ec 08             	sub    $0x8,%esp
 804854f:	e8 6c ff ff ff       	call   80484c0 <deregister_tm_clones>
 8048554:	c6 05 34 a0 04 08 01 	movb   $0x1,0x804a034
 804855b:	c9                   	leave  
 804855c:	c3                   	ret    
 804855d:	8d 76 00             	lea    0x0(%esi),%esi
 8048560:	f3 c3                	repz ret 
 8048562:	8d b4 26 00 00 00 00 	lea    0x0(%esi,%eiz,1),%esi
 8048569:	8d bc 27 00 00 00 00 	lea    0x0(%edi,%eiz,1),%edi

08048570 <frame_dummy>:
 8048570:	55                   	push   %ebp
 8048571:	89 e5                	mov    %esp,%ebp
 8048573:	5d                   	pop    %ebp
 8048574:	eb 8a                	jmp    8048500 <register_tm_clones>

08048576 <vuln>:
 8048576:	57                   	push   %edi
 8048577:	56                   	push   %esi
 8048578:	53                   	push   %ebx
 8048579:	81 ec a8 00 00 00    	sub    $0xa8,%esp
 804857f:	e8 2c ff ff ff       	call   80484b0 <__x86.get_pc_thunk.bx>
 8048584:	81 c3 7c 1a 00 00    	add    $0x1a7c,%ebx
 804858a:	8d 74 24 14          	lea    0x14(%esp),%esi
 804858e:	56                   	push   %esi
 804858f:	8d 83 d0 e6 ff ff    	lea    -0x1930(%ebx),%eax
 8048595:	50                   	push   %eax
 8048596:	e8 35 fe ff ff       	call   80483d0 <printf@plt>
 804859b:	83 c4 04             	add    $0x4,%esp
 804859e:	8b bb fc ff ff ff    	mov    -0x4(%ebx),%edi
 80485a4:	ff 37                	pushl  (%edi)
 80485a6:	e8 35 fe ff ff       	call   80483e0 <fflush@plt>
 80485ab:	89 34 24             	mov    %esi,(%esp)
 80485ae:	e8 3d fe ff ff       	call   80483f0 <gets@plt>
 80485b3:	89 34 24             	mov    %esi,(%esp)
 80485b6:	e8 55 fe ff ff       	call   8048410 <puts@plt>
 80485bb:	83 c4 04             	add    $0x4,%esp
 80485be:	ff 37                	pushl  (%edi)
 80485c0:	e8 1b fe ff ff       	call   80483e0 <fflush@plt>
 80485c5:	81 c4 b0 00 00 00    	add    $0xb0,%esp
 80485cb:	5b                   	pop    %ebx
 80485cc:	5e                   	pop    %esi
 80485cd:	5f                   	pop    %edi
 80485ce:	c3                   	ret    

080485cf <print_prompt>:
 80485cf:	53                   	push   %ebx
 80485d0:	83 ec 14             	sub    $0x14,%esp
 80485d3:	e8 d8 fe ff ff       	call   80484b0 <__x86.get_pc_thunk.bx>
 80485d8:	81 c3 28 1a 00 00    	add    $0x1a28,%ebx
 80485de:	8d 83 fc e6 ff ff    	lea    -0x1904(%ebx),%eax
 80485e4:	50                   	push   %eax
 80485e5:	e8 36 fe ff ff       	call   8048420 <system@plt>
 80485ea:	83 c4 18             	add    $0x18,%esp
 80485ed:	5b                   	pop    %ebx
 80485ee:	c3                   	ret    

080485ef <main>:
 80485ef:	8d 4c 24 04          	lea    0x4(%esp),%ecx
 80485f3:	83 e4 f0             	and    $0xfffffff0,%esp
 80485f6:	ff 71 fc             	pushl  -0x4(%ecx)
 80485f9:	55                   	push   %ebp
 80485fa:	89 e5                	mov    %esp,%ebp
 80485fc:	53                   	push   %ebx
 80485fd:	51                   	push   %ecx
 80485fe:	e8 ad fe ff ff       	call   80484b0 <__x86.get_pc_thunk.bx>
 8048603:	81 c3 fd 19 00 00    	add    $0x19fd,%ebx
 8048609:	e8 f2 fd ff ff       	call   8048400 <getegid@plt>
 804860e:	83 ec 04             	sub    $0x4,%esp
 8048611:	50                   	push   %eax
 8048612:	50                   	push   %eax
 8048613:	50                   	push   %eax
 8048614:	e8 27 fe ff ff       	call   8048440 <setresgid@plt>
 8048619:	e8 b1 ff ff ff       	call   80485cf <print_prompt>
 804861e:	83 c4 04             	add    $0x4,%esp
 8048621:	8b 83 fc ff ff ff    	mov    -0x4(%ebx),%eax
 8048627:	ff 30                	pushl  (%eax)
 8048629:	e8 b2 fd ff ff       	call   80483e0 <fflush@plt>
 804862e:	e8 43 ff ff ff       	call   8048576 <vuln>
 8048633:	83 c4 10             	add    $0x10,%esp
 8048636:	b8 00 00 00 00       	mov    $0x0,%eax
 804863b:	8d 65 f8             	lea    -0x8(%ebp),%esp
 804863e:	59                   	pop    %ecx
 804863f:	5b                   	pop    %ebx
 8048640:	5d                   	pop    %ebp
 8048641:	8d 61 fc             	lea    -0x4(%ecx),%esp
 8048644:	c3                   	ret    
 8048645:	66 90                	xchg   %ax,%ax
 8048647:	66 90                	xchg   %ax,%ax
 8048649:	66 90                	xchg   %ax,%ax
 804864b:	66 90                	xchg   %ax,%ax
 804864d:	66 90                	xchg   %ax,%ax
 804864f:	90                   	nop

08048650 <__libc_csu_init>:
 8048650:	55                   	push   %ebp
 8048651:	57                   	push   %edi
 8048652:	56                   	push   %esi
 8048653:	53                   	push   %ebx
 8048654:	e8 57 fe ff ff       	call   80484b0 <__x86.get_pc_thunk.bx>
 8048659:	81 c3 a7 19 00 00    	add    $0x19a7,%ebx
 804865f:	83 ec 0c             	sub    $0xc,%esp
 8048662:	8b 6c 24 28          	mov    0x28(%esp),%ebp
 8048666:	8d b3 0c ff ff ff    	lea    -0xf4(%ebx),%esi
 804866c:	e8 23 fd ff ff       	call   8048394 <_init>
 8048671:	8d 83 08 ff ff ff    	lea    -0xf8(%ebx),%eax
 8048677:	29 c6                	sub    %eax,%esi
 8048679:	c1 fe 02             	sar    $0x2,%esi
 804867c:	85 f6                	test   %esi,%esi
 804867e:	74 25                	je     80486a5 <__libc_csu_init+0x55>
 8048680:	31 ff                	xor    %edi,%edi
 8048682:	8d b6 00 00 00 00    	lea    0x0(%esi),%esi
 8048688:	83 ec 04             	sub    $0x4,%esp
 804868b:	55                   	push   %ebp
 804868c:	ff 74 24 2c          	pushl  0x2c(%esp)
 8048690:	ff 74 24 2c          	pushl  0x2c(%esp)
 8048694:	ff 94 bb 08 ff ff ff 	call   *-0xf8(%ebx,%edi,4)
 804869b:	83 c7 01             	add    $0x1,%edi
 804869e:	83 c4 10             	add    $0x10,%esp
 80486a1:	39 fe                	cmp    %edi,%esi
 80486a3:	75 e3                	jne    8048688 <__libc_csu_init+0x38>
 80486a5:	83 c4 0c             	add    $0xc,%esp
 80486a8:	5b                   	pop    %ebx
 80486a9:	5e                   	pop    %esi
 80486aa:	5f                   	pop    %edi
 80486ab:	5d                   	pop    %ebp
 80486ac:	c3                   	ret    
 80486ad:	8d 76 00             	lea    0x0(%esi),%esi

080486b0 <__libc_csu_fini>:
 80486b0:	f3 c3                	repz ret 

Disassembly of section .fini:

080486b4 <_fini>:
 80486b4:	53                   	push   %ebx
 80486b5:	83 ec 08             	sub    $0x8,%esp
 80486b8:	e8 f3 fd ff ff       	call   80484b0 <__x86.get_pc_thunk.bx>
 80486bd:	81 c3 43 19 00 00    	add    $0x1943,%ebx
 80486c3:	83 c4 08             	add    $0x8,%esp
 80486c6:	5b                   	pop    %ebx
 80486c7:	c3                   	ret    
